; Function Attrs: mustprogress uwtable
define hidden void @_ZNK10polynomial7manager7factors7displayERSo(ptr noundef nonnull align 8 dereferenceable(44) %this, ptr noundef nonnull align 8 dereferenceable(8) %out) local_unnamed_addr #4 align 2 personality ptr @__gxx_personality_v0 {
entry:
  %ref.tmp = alloca %"class.std::__cxx11::basic_string", align 8
  %ref.tmp9 = alloca %"struct.polynomial::display_var_proc", align 8
  %m_manager.i = getelementptr inbounds i8, ptr %this, i64 16
  %0 = load ptr, ptr %m_manager.i, align 8
  %1 = load ptr, ptr %0, align 8
  %m_manager.i8 = getelementptr inbounds i8, ptr %1, i64 16
  %2 = load ptr, ptr %m_manager.i8, align 8
  %m_constant.i = getelementptr inbounds i8, ptr %this, i64 24
  call void @_ZNK11mpz_managerILb0EE9to_stringB5cxx11ERK3mpz(ptr nonnull sret(%"class.std::__cxx11::basic_string") align 8 %ref.tmp, ptr noundef nonnull align 8 dereferenceable(600) %2, ptr noundef nonnull align 8 dereferenceable(16) %m_constant.i)
  %call4 = invoke noundef nonnull align 8 dereferenceable(8) ptr @_ZStlsIcSt11char_traitsIcESaIcEERSt13basic_ostreamIT_T0_ES7_RKNSt7__cxx1112basic_stringIS4_S5_T1_EE(ptr noundef nonnull align 8 dereferenceable(8) %out, ptr noundef nonnull align 8 dereferenceable(32) %ref.tmp)
          to label %invoke.cont unwind label %lpad

invoke.cont:                                      ; preds = %entry
  call void @_ZNSt7__cxx1112basic_stringIcSt11char_traitsIcESaIcEED1Ev(ptr noundef nonnull align 8 dereferenceable(32) %ref.tmp) #28
  %m_degrees = getelementptr inbounds i8, ptr %this, i64 8
  br label %for.cond

for.cond:                                         ; preds = %for.body, %invoke.cont
  %indvars.iv = phi i64 [ %indvars.iv.next, %for.body ], [ 0, %invoke.cont ]
  %3 = load ptr, ptr %this, align 8
  %cmp.i = icmp eq ptr %3, null
  br i1 %cmp.i, label %_ZNK6vectorIPN10polynomial10polynomialELb1EjE4sizeEv.exit, label %if.end.i

if.end.i:                                         ; preds = %for.cond
  %arrayidx.i = getelementptr inbounds i8, ptr %3, i64 -4
  %4 = load i32, ptr %arrayidx.i, align 4
  br label %_ZNK6vectorIPN10polynomial10polynomialELb1EjE4sizeEv.exit

_ZNK6vectorIPN10polynomial10polynomialELb1EjE4sizeEv.exit: ; preds = %for.cond, %if.end.i
  %retval.0.i = phi i32 [ %4, %if.end.i ], [ 0, %for.cond ]
  %5 = zext i32 %retval.0.i to i64
  %cmp = icmp ult i64 %indvars.iv, %5
  br i1 %cmp, label %for.body, label %for.end

for.body:                                         ; preds = %_ZNK6vectorIPN10polynomial10polynomialELb1EjE4sizeEv.exit
  %call6 = call noundef nonnull align 8 dereferenceable(8) ptr @_ZStlsISt11char_traitsIcEERSt13basic_ostreamIcT_ES5_PKc(ptr noundef nonnull align 8 dereferenceable(8) %out, ptr noundef nonnull @.str.11)
  %6 = load ptr, ptr %m_manager.i, align 8
  %7 = load ptr, ptr %this, align 8
  %arrayidx.i9 = getelementptr inbounds ptr, ptr %7, i64 %indvars.iv
  %8 = load ptr, ptr %arrayidx.i9, align 8
  store ptr getelementptr inbounds ({ [5 x ptr] }, ptr @_ZTVN10polynomial16display_var_procE, i64 0, i32 0, i64 2), ptr %ref.tmp9, align 8
  %9 = load ptr, ptr %6, align 8
  %m_manager.i10 = getelementptr inbounds i8, ptr %9, i64 16
  %call.i11 = call noundef nonnull align 8 dereferenceable(8) ptr @_ZNK10polynomial10polynomial7displayERSoR13mpzzp_managerRKNS_16display_var_procEb(ptr noundef nonnull align 8 dereferenceable(32) %8, ptr noundef nonnull align 8 dereferenceable(8) %out, ptr noundef nonnull align 8 dereferenceable(136) %m_manager.i10, ptr noundef nonnull align 8 dereferenceable(8) %ref.tmp9, i1 noundef zeroext false)
  %call12 = call noundef nonnull align 8 dereferenceable(8) ptr @_ZStlsISt11char_traitsIcEERSt13basic_ostreamIcT_ES5_PKc(ptr noundef nonnull align 8 dereferenceable(8) %out, ptr noundef nonnull @.str.12)
  %10 = load ptr, ptr %m_degrees, align 8
  %arrayidx.i13 = getelementptr inbounds i32, ptr %10, i64 %indvars.iv
  %11 = load i32, ptr %arrayidx.i13, align 4
  %call14 = call noundef nonnull align 8 dereferenceable(8) ptr @_ZNSolsEj(ptr noundef nonnull align 8 dereferenceable(8) %call12, i32 noundef %11)
  %indvars.iv.next = add nuw nsw i64 %indvars.iv, 1
  br label %for.cond, !llvm.loop !13

lpad:                                             ; preds = %entry
  %12 = landingpad { ptr, i32 }
          cleanup
  call void @_ZNSt7__cxx1112basic_stringIcSt11char_traitsIcESaIcEED1Ev(ptr noundef nonnull align 8 dereferenceable(32) %ref.tmp) #28
  resume { ptr, i32 } %12

for.end:                                          ; preds = %_ZNK6vectorIPN10polynomial10polynomialELb1EjE4sizeEv.exit
  ret void
}